Certificate:
    Data:
        Version: 3 (0x2)
        Serial Number: 4096 (0x1000)
    Signature Algorithm: sha256WithRSAEncryption
        Issuer: C=US, ST=Arizona, L=Tucson, O=University Of Arizona, OU=ECE, CN=vpnreyes.com/emailAddress=alexanderfreyes@email.arizona.edu
        Validity
            Not Before: May  3 03:48:34 2020 GMT
            Not After : May  3 03:48:34 2021 GMT
        Subject: C=US, ST=Arizona, L=Tucson, O=Universtiy of Arizona, OU=ECE, CN=vpnreyes.com/emailAddress=alexanderfreyes@email.arizona.edu
        Subject Public Key Info:
            Public Key Algorithm: rsaEncryption
                Public-Key: (2048 bit)
                Modulus:
                    00:e1:b7:37:8b:be:31:f2:5c:07:3e:bf:2a:b8:2f:
                    fa:3f:6b:99:91:89:39:07:6d:53:df:f4:e3:ca:1e:
                    ad:f2:c3:87:06:cc:7d:bd:db:0f:b3:5c:71:8e:79:
                    18:64:8c:98:29:d5:d4:d8:94:01:5a:6d:02:05:be:
                    65:83:f3:67:cd:92:d2:80:ef:b3:f6:08:fc:82:3f:
                    44:98:cb:c9:5a:15:b3:6f:9f:e1:d8:76:71:2f:88:
                    47:ba:7d:d1:4d:13:31:f8:f6:a3:ed:ac:ee:b0:ae:
                    ca:13:09:fa:f5:f4:35:6e:94:4c:d7:86:be:3d:5a:
                    22:c3:3d:c1:41:86:3b:94:0f:3d:b0:6d:68:ee:53:
                    47:46:c0:40:f1:fb:76:9e:f2:9c:7b:aa:45:67:82:
                    5b:46:61:92:63:f1:52:db:f2:cc:ae:6a:35:d8:26:
                    02:0c:70:fe:1e:38:4e:82:15:fa:23:4c:c5:51:fb:
                    0a:6f:10:f3:e7:b1:9e:c6:ba:f5:e1:52:8b:53:2e:
                    ec:1c:b2:95:a1:ab:60:66:ff:5b:bf:d9:50:00:b1:
                    49:a5:07:e0:ac:8b:6b:ce:8b:09:26:81:7f:b0:f4:
                    52:a5:c5:24:c3:e5:08:82:19:e6:29:e6:15:7d:27:
                    b5:2d:c3:9f:1d:fb:4b:6a:bc:1a:93:27:97:1c:10:
                    2f:d7
                Exponent: 65537 (0x10001)
        X509v3 extensions:
            X509v3 Basic Constraints: 
                CA:FALSE
            Netscape Comment: 
                OpenSSL Generated Certificate
            X509v3 Subject Key Identifier: 
                BC:77:4A:B2:92:21:E8:00:FE:6C:79:01:46:12:15:95:8C:2C:D2:9E
            X509v3 Authority Key Identifier: 
                keyid:00:B1:70:6F:BC:28:F8:86:21:78:C0:A3:1A:36:11:7D:31:6A:BD:CF

    Signature Algorithm: sha256WithRSAEncryption
         10:b9:5a:d8:73:ad:98:f7:2d:01:e6:35:60:69:09:c9:9b:9f:
         57:32:0d:a3:7c:ff:98:7f:6b:81:72:96:f7:fc:4c:e9:41:4e:
         47:bd:34:d7:7b:94:dc:bd:59:7f:31:af:bc:78:68:5a:d4:51:
         89:18:6a:87:dd:b6:7f:a0:9f:85:05:55:ba:de:16:7b:73:ef:
         50:55:f2:8f:b6:68:26:f4:dd:9f:09:fa:52:87:95:10:85:6d:
         0f:69:ae:e6:d0:fe:d6:a3:af:ab:5f:d5:69:42:c1:ff:bc:5f:
         ec:30:81:94:2f:c1:c0:dc:c0:e6:6d:4e:8e:61:52:1e:be:41:
         00:51:10:99:ca:a4:d6:23:25:79:52:eb:ce:56:26:5b:14:1c:
         15:cf:ec:fe:bd:48:a7:7a:f8:a0:1a:57:99:cb:cd:b8:93:10:
         65:e1:31:e4:e5:07:9f:b8:97:d7:5d:c4:b6:0a:1c:ab:3e:9b:
         80:3c:4e:14:e4:1f:c8:37:58:3e:15:cc:2f:fd:ce:62:12:4e:
         dd:c9:7c:6b:b4:5c:85:eb:34:ac:90:8e:3d:53:c1:d3:45:87:
         61:62:da:bf:49:79:05:62:e7:b5:67:e3:c4:94:3c:5f:02:74:
         ae:34:73:7f:05:d5:f3:86:96:1c:de:dd:93:f3:7a:25:b9:2f:
         38:48:9f:ae:d3:5c:82:4e:36:cf:4d:7b:87:95:1f:11:b1:91:
         a1:3b:0d:c3:5a:91:71:88:c8:cb:d5:da:aa:17:a6:31:10:6b:
         14:1c:44:79:0e:b0:27:07:47:cb:e0:2b:bb:6e:3e:91:27:da:
         8b:ae:55:31:f5:a4:4c:d2:22:5d:b1:f9:38:26:ab:85:26:cc:
         52:3d:64:23:5f:67:0b:40:3a:9f:9b:49:09:09:35:4b:cb:e3:
         e3:07:1e:60:ce:0d:62:d3:24:86:39:84:6a:bb:c3:46:aa:a3:
         c8:da:67:1e:70:1c:e1:8c:97:3e:f3:09:ca:c2:57:36:e2:29:
         05:9b:d1:a2:9b:46:5e:ca:01:c6:01:aa:63:59:6d:45:c7:58:
         a5:31:ed:a8:d9:3c:f3:57:d7:73:c5:ef:67:20:fd:bc:3c:ac:
         53:d4:bc:2d:79:74:7f:74:be:16:f4:01:4a:b0:07:86:c3:e1:
         46:41:22:98:0d:0b:e9:1f:0d:1e:82:d1:b3:70:f4:94:bc:16:
         8c:68:40:fc:e0:8f:80:28:bd:81:3b:17:64:17:14:85:c4:c3:
         8b:99:9c:fe:fb:85:4e:77:41:40:86:b8:ee:0a:bf:f9:f2:c7:
         85:b7:25:9b:87:80:80:1c:86:4a:18:5b:ac:fc:60:d5:75:7c:
         41:ee:64:f4:df:fd:d2:24
-----BEGIN CERTIFICATE-----
MIIFRzCCAy+gAwIBAgICEAAwDQYJKoZIhvcNAQELBQAwgacxCzAJBgNVBAYTAlVT
MRAwDgYDVQQIDAdBcml6b25hMQ8wDQYDVQQHDAZUdWNzb24xHjAcBgNVBAoMFVVu
aXZlcnNpdHkgT2YgQXJpem9uYTEMMAoGA1UECwwDRUNFMRUwEwYDVQQDDAx2cG5y
ZXllcy5jb20xMDAuBgkqhkiG9w0BCQEWIWFsZXhhbmRlcmZyZXllc0BlbWFpbC5h
cml6b25hLmVkdTAeFw0yMDA1MDMwMzQ4MzRaFw0yMTA1MDMwMzQ4MzRaMIGnMQsw
CQYDVQQGEwJVUzEQMA4GA1UECAwHQXJpem9uYTEPMA0GA1UEBwwGVHVjc29uMR4w
HAYDVQQKDBVVbml2ZXJzdGl5IG9mIEFyaXpvbmExDDAKBgNVBAsMA0VDRTEVMBMG
A1UEAwwMdnBucmV5ZXMuY29tMTAwLgYJKoZIhvcNAQkBFiFhbGV4YW5kZXJmcmV5
ZXNAZW1haWwuYXJpem9uYS5lZHUwggEiMA0GCSqGSIb3DQEBAQUAA4IBDwAwggEK
AoIBAQDhtzeLvjHyXAc+vyq4L/o/a5mRiTkHbVPf9OPKHq3yw4cGzH292w+zXHGO
eRhkjJgp1dTYlAFabQIFvmWD82fNktKA77P2CPyCP0SYy8laFbNvn+HYdnEviEe6
fdFNEzH49qPtrO6wrsoTCfr19DVulEzXhr49WiLDPcFBhjuUDz2wbWjuU0dGwEDx
+3ae8px7qkVngltGYZJj8VLb8syuajXYJgIMcP4eOE6CFfojTMVR+wpvEPPnsZ7G
uvXhUotTLuwcspWhq2Bm/1u/2VAAsUmlB+Csi2vOiwkmgX+w9FKlxSTD5QiCGeYp
5hV9J7Utw58d+0tqvBqTJ5ccEC/XAgMBAAGjezB5MAkGA1UdEwQCMAAwLAYJYIZI
AYb4QgENBB8WHU9wZW5TU0wgR2VuZXJhdGVkIENlcnRpZmljYXRlMB0GA1UdDgQW
BBS8d0qykiHoAP5seQFGEhWVjCzSnjAfBgNVHSMEGDAWgBQAsXBvvCj4hiF4wKMa
NhF9MWq9zzANBgkqhkiG9w0BAQsFAAOCAgEAELla2HOtmPctAeY1YGkJyZufVzIN
o3z/mH9rgXKW9/xM6UFOR70013uU3L1ZfzGvvHhoWtRRiRhqh922f6CfhQVVut4W
e3PvUFXyj7ZoJvTdnwn6UoeVEIVtD2mu5tD+1qOvq1/VaULB/7xf7DCBlC/BwNzA
5m1OjmFSHr5BAFEQmcqk1iMleVLrzlYmWxQcFc/s/r1Ip3r4oBpXmcvNuJMQZeEx
5OUHn7iX113Etgocqz6bgDxOFOQfyDdYPhXML/3OYhJO3cl8a7Rches0rJCOPVPB
00WHYWLav0l5BWLntWfjxJQ8XwJ0rjRzfwXV84aWHN7dk/N6JbkvOEifrtNcgk42
z017h5UfEbGRoTsNw1qRcYjIy9XaqhemMRBrFBxEeQ6wJwdHy+Aru24+kSfai65V
MfWkTNIiXbH5OCarhSbMUj1kI19nC0A6n5tJCQk1S8vj4wceYM4NYtMkhjmEarvD
RqqjyNpnHnAc4YyXPvMJysJXNuIpBZvRoptGXsoBxgGqY1ltRcdYpTHtqNk881fX
c8XvZyD9vDysU9S8LXl0f3S+FvQBSrAHhsPhRkEimA0L6R8NHoLRs3D0lLwWjGhA
/OCPgCi9gTsXZBcUhcTDi5mc/vuFTndBQIa47gq/+fLHhbclm4eAgByGShhbrPxg
1XV8Qe5k9N/90iQ=
-----END CERTIFICATE-----
